target datalayout = "e-m:e-p270:32:32-p271:32:32-p272:64:64-i64:64-i128:128-f80:128-n8:16:32:64-S128"
target triple = "x86_64-pc-linux-gnu"

@crc32c_once_hw = internal global i32 0, align 4
@crc32c_long = internal global [4 x [256 x i32]] zeroinitializer, align 16
@crc32c_short = internal global [4 x [256 x i32]] zeroinitializer, align 16

; Function Attrs: inlinehint nounwind uwtable
define internal i32 @crc32c_shift(ptr noundef %0, i32 noundef %1) #4 {
  %3 = alloca ptr, align 8
  %4 = alloca i32, align 4
  store ptr %0, ptr %3, align 8, !tbaa !41
  store i32 %1, ptr %4, align 4, !tbaa !4
  %5 = load ptr, ptr %3, align 8, !tbaa !41
  %6 = getelementptr inbounds [256 x i32], ptr %5, i64 0
  %7 = load i32, ptr %4, align 4, !tbaa !4
  %8 = and i32 %7, 255
  %9 = zext i32 %8 to i64
  %10 = getelementptr inbounds nuw [256 x i32], ptr %6, i64 0, i64 %9
  %11 = load i32, ptr %10, align 4, !tbaa !4
  %12 = load ptr, ptr %3, align 8, !tbaa !41
  %13 = getelementptr inbounds [256 x i32], ptr %12, i64 1
  %14 = load i32, ptr %4, align 4, !tbaa !4
  %15 = lshr i32 %14, 8
  %16 = and i32 %15, 255
  %17 = zext i32 %16 to i64
  %18 = getelementptr inbounds nuw [256 x i32], ptr %13, i64 0, i64 %17
  %19 = load i32, ptr %18, align 4, !tbaa !4
  %20 = xor i32 %11, %19
  %21 = load ptr, ptr %3, align 8, !tbaa !41
  %22 = getelementptr inbounds [256 x i32], ptr %21, i64 2
  %23 = load i32, ptr %4, align 4, !tbaa !4
  %24 = lshr i32 %23, 16
  %25 = and i32 %24, 255
  %26 = zext i32 %25 to i64
  %27 = getelementptr inbounds nuw [256 x i32], ptr %22, i64 0, i64 %26
  %28 = load i32, ptr %27, align 4, !tbaa !4
  %29 = xor i32 %20, %28
  %30 = load ptr, ptr %3, align 8, !tbaa !41
  %31 = getelementptr inbounds [256 x i32], ptr %30, i64 3
  %32 = load i32, ptr %4, align 4, !tbaa !4
  %33 = lshr i32 %32, 24
  %34 = zext i32 %33 to i64
  %35 = getelementptr inbounds nuw [256 x i32], ptr %31, i64 0, i64 %34
  %36 = load i32, ptr %35, align 4, !tbaa !4
  %37 = xor i32 %29, %36
  ret i32 %37
}

; Function Attrs: nounwind uwtable
define internal i32 @crc32c_hw(i32 noundef %0, ptr noundef %1, i64 noundef %2) #0 {
  %4 = alloca i32, align 4
  %5 = alloca ptr, align 8
  %6 = alloca i64, align 8
  %7 = alloca i64, align 8
  %8 = alloca ptr, align 8
  %9 = alloca i64, align 8
  %10 = alloca i64, align 8
  %11 = alloca ptr, align 8
  %12 = alloca i64, align 8
  %13 = alloca i64, align 8
  %14 = alloca ptr, align 8
  %15 = alloca ptr, align 8
  store i32 %0, ptr %4, align 4, !tbaa !4
  store ptr %1, ptr %5, align 8, !tbaa !9
  store i64 %2, ptr %6, align 8, !tbaa !11
  %16 = call i32 @pthread_once(ptr noundef @crc32c_once_hw, ptr noundef @crc32c_init_hw)
  %17 = load i32, ptr %4, align 4, !tbaa !4
  %18 = xor i32 %17, -1
  store i32 %18, ptr %4, align 4, !tbaa !4
  call void @llvm.lifetime.start.p0(i64 8, ptr %7) #5
  %19 = load i32, ptr %4, align 4, !tbaa !4
  %20 = zext i32 %19 to i64
  store i64 %20, ptr %7, align 8, !tbaa !11
  call void @llvm.lifetime.start.p0(i64 8, ptr %8) #5
  %21 = load ptr, ptr %5, align 8, !tbaa !9
  store ptr %21, ptr %8, align 8, !tbaa !13
  br label %22

22:                                               ; preds = %32, %3
  %23 = load i64, ptr %6, align 8, !tbaa !11
  %24 = icmp ne i64 %23, 0
  br i1 %24, label %25, label %30

25:                                               ; preds = %22
  %26 = load ptr, ptr %8, align 8, !tbaa !13
  %27 = ptrtoint ptr %26 to i64
  %28 = and i64 %27, 7
  %29 = icmp ne i64 %28, 0
  br label %30

30:                                               ; preds = %25, %22
  %31 = phi i1 [ false, %22 ], [ %29, %25 ]
  br i1 %31, label %32, label %41

32:                                               ; preds = %30
  %33 = load i64, ptr %7, align 8, !tbaa !11
  %34 = load ptr, ptr %8, align 8, !tbaa !13
  %35 = load ptr, ptr %8, align 8, !tbaa !13
  %36 = call i64 asm "crc32b\09($1), $0", "=r,r,*m,0,~{dirflag},~{fpsr},~{flags}"(ptr %34, ptr elementtype(i8) %35, i64 %33) #7, !srcloc !15
  store i64 %36, ptr %7, align 8, !tbaa !11
  %37 = load ptr, ptr %8, align 8, !tbaa !13
  %38 = getelementptr inbounds nuw i8, ptr %37, i32 1
  store ptr %38, ptr %8, align 8, !tbaa !13
  %39 = load i64, ptr %6, align 8, !tbaa !11
  %40 = add i64 %39, -1
  store i64 %40, ptr %6, align 8, !tbaa !11
  br label %22, !llvm.loop !16

41:                                               ; preds = %30
  br label %42

42:                                               ; preds = %64, %41
  %43 = load i64, ptr %6, align 8, !tbaa !11
  %44 = icmp uge i64 %43, 24576
  br i1 %44, label %45, label %81

45:                                               ; preds = %42
  call void @llvm.lifetime.start.p0(i64 8, ptr %9) #5
  store i64 0, ptr %9, align 8, !tbaa !11
  call void @llvm.lifetime.start.p0(i64 8, ptr %10) #5
  store i64 0, ptr %10, align 8, !tbaa !11
  call void @llvm.lifetime.start.p0(i64 8, ptr %11) #5
  %46 = load ptr, ptr %8, align 8, !tbaa !13
  %47 = getelementptr inbounds i8, ptr %46, i64 8192
  store ptr %47, ptr %11, align 8, !tbaa !13
  br label %48

48:                                               ; preds = %60, %45
  %49 = load i64, ptr %7, align 8, !tbaa !11
  %50 = load i64, ptr %9, align 8, !tbaa !11
  %51 = load i64, ptr %10, align 8, !tbaa !11
  %52 = load ptr, ptr %8, align 8, !tbaa !13
  %53 = load ptr, ptr %8, align 8, !tbaa !13
  %54 = call { i64, i64, i64 } asm "crc32q\09($3), $0\0A\09crc32q\098192($3), $1\0A\09crc32q\0916384($3), $2", "=r,=r,=r,r,*m,0,1,2,~{dirflag},~{fpsr},~{flags}"(ptr %52, ptr elementtype(i8) %53, i64 %49, i64 %50, i64 %51) #7, !srcloc !18
  %55 = extractvalue { i64, i64, i64 } %54, 0
  %56 = extractvalue { i64, i64, i64 } %54, 1
  %57 = extractvalue { i64, i64, i64 } %54, 2
  store i64 %55, ptr %7, align 8, !tbaa !11
  store i64 %56, ptr %9, align 8, !tbaa !11
  store i64 %57, ptr %10, align 8, !tbaa !11
  %58 = load ptr, ptr %8, align 8, !tbaa !13
  %59 = getelementptr inbounds i8, ptr %58, i64 8
  store ptr %59, ptr %8, align 8, !tbaa !13
  br label %60

60:                                               ; preds = %48
  %61 = load ptr, ptr %8, align 8, !tbaa !13
  %62 = load ptr, ptr %11, align 8, !tbaa !13
  %63 = icmp ult ptr %61, %62
  br i1 %63, label %48, label %64, !llvm.loop !19

64:                                               ; preds = %60
  %65 = load i64, ptr %7, align 8, !tbaa !11
  %66 = trunc i64 %65 to i32
  %67 = call i32 @crc32c_shift(ptr noundef @crc32c_long, i32 noundef %66)
  %68 = zext i32 %67 to i64
  %69 = load i64, ptr %9, align 8, !tbaa !11
  %70 = xor i64 %68, %69
  store i64 %70, ptr %7, align 8, !tbaa !11
  %71 = load i64, ptr %7, align 8, !tbaa !11
  %72 = trunc i64 %71 to i32
  %73 = call i32 @crc32c_shift(ptr noundef @crc32c_long, i32 noundef %72)
  %74 = zext i32 %73 to i64
  %75 = load i64, ptr %10, align 8, !tbaa !11
  %76 = xor i64 %74, %75
  store i64 %76, ptr %7, align 8, !tbaa !11
  %77 = load ptr, ptr %8, align 8, !tbaa !13
  %78 = getelementptr inbounds i8, ptr %77, i64 16384
  store ptr %78, ptr %8, align 8, !tbaa !13
  %79 = load i64, ptr %6, align 8, !tbaa !11
  %80 = sub i64 %79, 24576
  store i64 %80, ptr %6, align 8, !tbaa !11
  call void @llvm.lifetime.end.p0(i64 8, ptr %11) #5
  call void @llvm.lifetime.end.p0(i64 8, ptr %10) #5
  call void @llvm.lifetime.end.p0(i64 8, ptr %9) #5
  br label %42, !llvm.loop !20

81:                                               ; preds = %42
  br label %82

82:                                               ; preds = %104, %81
  %83 = load i64, ptr %6, align 8, !tbaa !11
  %84 = icmp uge i64 %83, 768
  br i1 %84, label %85, label %121

85:                                               ; preds = %82
  call void @llvm.lifetime.start.p0(i64 8, ptr %12) #5
  store i64 0, ptr %12, align 8, !tbaa !11
  call void @llvm.lifetime.start.p0(i64 8, ptr %13) #5
  store i64 0, ptr %13, align 8, !tbaa !11
  call void @llvm.lifetime.start.p0(i64 8, ptr %14) #5
  %86 = load ptr, ptr %8, align 8, !tbaa !13
  %87 = getelementptr inbounds i8, ptr %86, i64 256
  store ptr %87, ptr %14, align 8, !tbaa !13
  br label %88

88:                                               ; preds = %100, %85
  %89 = load i64, ptr %7, align 8, !tbaa !11
  %90 = load i64, ptr %12, align 8, !tbaa !11
  %91 = load i64, ptr %13, align 8, !tbaa !11
  %92 = load ptr, ptr %8, align 8, !tbaa !13
  %93 = load ptr, ptr %8, align 8, !tbaa !13
  %94 = call { i64, i64, i64 } asm "crc32q\09($3), $0\0A\09crc32q\09256($3), $1\0A\09crc32q\09512($3), $2", "=r,=r,=r,r,*m,0,1,2,~{dirflag},~{fpsr},~{flags}"(ptr %92, ptr elementtype(i8) %93, i64 %89, i64 %90, i64 %91) #7, !srcloc !21
  %95 = extractvalue { i64, i64, i64 } %94, 0
  %96 = extractvalue { i64, i64, i64 } %94, 1
  %97 = extractvalue { i64, i64, i64 } %94, 2
  store i64 %95, ptr %7, align 8, !tbaa !11
  store i64 %96, ptr %12, align 8, !tbaa !11
  store i64 %97, ptr %13, align 8, !tbaa !11
  %98 = load ptr, ptr %8, align 8, !tbaa !13
  %99 = getelementptr inbounds i8, ptr %98, i64 8
  store ptr %99, ptr %8, align 8, !tbaa !13
  br label %100

100:                                              ; preds = %88
  %101 = load ptr, ptr %8, align 8, !tbaa !13
  %102 = load ptr, ptr %14, align 8, !tbaa !13
  %103 = icmp ult ptr %101, %102
  br i1 %103, label %88, label %104, !llvm.loop !22

104:                                              ; preds = %100
  %105 = load i64, ptr %7, align 8, !tbaa !11
  %106 = trunc i64 %105 to i32
  %107 = call i32 @crc32c_shift(ptr noundef @crc32c_short, i32 noundef %106)
  %108 = zext i32 %107 to i64
  %109 = load i64, ptr %12, align 8, !tbaa !11
  %110 = xor i64 %108, %109
  store i64 %110, ptr %7, align 8, !tbaa !11
  %111 = load i64, ptr %7, align 8, !tbaa !11
  %112 = trunc i64 %111 to i32
  %113 = call i32 @crc32c_shift(ptr noundef @crc32c_short, i32 noundef %112)
  %114 = zext i32 %113 to i64
  %115 = load i64, ptr %13, align 8, !tbaa !11
  %116 = xor i64 %114, %115
  store i64 %116, ptr %7, align 8, !tbaa !11
  %117 = load ptr, ptr %8, align 8, !tbaa !13
  %118 = getelementptr inbounds i8, ptr %117, i64 512
  store ptr %118, ptr %8, align 8, !tbaa !13
  %119 = load i64, ptr %6, align 8, !tbaa !11
  %120 = sub i64 %119, 768
  store i64 %120, ptr %6, align 8, !tbaa !11
  call void @llvm.lifetime.end.p0(i64 8, ptr %14) #5
  call void @llvm.lifetime.end.p0(i64 8, ptr %13) #5
  call void @llvm.lifetime.end.p0(i64 8, ptr %12) #5
  br label %82, !llvm.loop !23

121:                                              ; preds = %82
  call void @llvm.lifetime.start.p0(i64 8, ptr %15) #5
  %122 = load ptr, ptr %8, align 8, !tbaa !13
  %123 = load i64, ptr %6, align 8, !tbaa !11
  %124 = load i64, ptr %6, align 8, !tbaa !11
  %125 = and i64 %124, 7
  %126 = sub i64 %123, %125
  %127 = getelementptr inbounds nuw i8, ptr %122, i64 %126
  store ptr %127, ptr %15, align 8, !tbaa !13
  br label %128

128:                                              ; preds = %132, %121
  %129 = load ptr, ptr %8, align 8, !tbaa !13
  %130 = load ptr, ptr %15, align 8, !tbaa !13
  %131 = icmp ult ptr %129, %130
  br i1 %131, label %132, label %139

132:                                              ; preds = %128
  %133 = load i64, ptr %7, align 8, !tbaa !11
  %134 = load ptr, ptr %8, align 8, !tbaa !13
  %135 = load ptr, ptr %8, align 8, !tbaa !13
  %136 = call i64 asm "crc32q\09($1), $0", "=r,r,*m,0,~{dirflag},~{fpsr},~{flags}"(ptr %134, ptr elementtype(i8) %135, i64 %133) #7, !srcloc !24
  store i64 %136, ptr %7, align 8, !tbaa !11
  %137 = load ptr, ptr %8, align 8, !tbaa !13
  %138 = getelementptr inbounds i8, ptr %137, i64 8
  store ptr %138, ptr %8, align 8, !tbaa !13
  br label %128, !llvm.loop !25

139:                                              ; preds = %128
  %140 = load i64, ptr %6, align 8, !tbaa !11
  %141 = and i64 %140, 7
  store i64 %141, ptr %6, align 8, !tbaa !11
  call void @llvm.lifetime.end.p0(i64 8, ptr %15) #5
  br label %142

142:                                              ; preds = %145, %139
  %143 = load i64, ptr %6, align 8, !tbaa !11
  %144 = icmp ne i64 %143, 0
  br i1 %144, label %145, label %154

145:                                              ; preds = %142
  %146 = load i64, ptr %7, align 8, !tbaa !11
  %147 = load ptr, ptr %8, align 8, !tbaa !13
  %148 = load ptr, ptr %8, align 8, !tbaa !13
  %149 = call i64 asm "crc32b\09($1), $0", "=r,r,*m,0,~{dirflag},~{fpsr},~{flags}"(ptr %147, ptr elementtype(i8) %148, i64 %146) #7, !srcloc !26
  store i64 %149, ptr %7, align 8, !tbaa !11
  %150 = load ptr, ptr %8, align 8, !tbaa !13
  %151 = getelementptr inbounds nuw i8, ptr %150, i32 1
  store ptr %151, ptr %8, align 8, !tbaa !13
  %152 = load i64, ptr %6, align 8, !tbaa !11
  %153 = add i64 %152, -1
  store i64 %153, ptr %6, align 8, !tbaa !11
  br label %142, !llvm.loop !27

154:                                              ; preds = %142
  %155 = load i64, ptr %7, align 8, !tbaa !11
  %156 = xor i64 %155, -1
  %157 = trunc i64 %156 to i32
  call void @llvm.lifetime.end.p0(i64 8, ptr %8) #5
  call void @llvm.lifetime.end.p0(i64 8, ptr %7) #5
  ret i32 %157
}