; Function Attrs: nounwind uwtable
define internal i32 @crc32c_hw(i32 noundef %0, ptr noundef %1, i64 noundef %2) #2 {
  %4 = tail call i32 @pthread_once(ptr noundef nonnull @crc32c_once_hw, ptr noundef nonnull @crc32c_init_hw) #10
  %5 = xor i32 %0, -1
  %6 = zext i32 %5 to i64
  %7 = icmp ne i64 %2, 0
  %8 = ptrtoint ptr %1 to i64
  %9 = and i64 %8, 7
  %10 = icmp ne i64 %9, 0
  %11 = and i1 %7, %10
  br i1 %11, label %.lr.ph, label %.preheader79

.preheader79:                                     ; preds = %.lr.ph, %3
  %.064.lcssa = phi ptr [ %1, %3 ], [ %14, %.lr.ph ]
  %.058.lcssa = phi i64 [ %6, %3 ], [ %13, %.lr.ph ]
  %.0.lcssa = phi i64 [ %2, %3 ], [ %15, %.lr.ph ]
  %12 = icmp ugt i64 %.0.lcssa, 24575
  br i1 %12, label %.preheader78, label %.preheader77

.lr.ph:                                           ; preds = %3, %.lr.ph
  %.087 = phi i64 [ %15, %.lr.ph ], [ %2, %3 ]
  %.05886 = phi i64 [ %13, %.lr.ph ], [ %6, %3 ]
  %.06485 = phi ptr [ %14, %.lr.ph ], [ %1, %3 ]
  %13 = tail call i64 asm "crc32b\09($1), $0", "=r,r,*m,0,~{dirflag},~{fpsr},~{flags}"(ptr %.06485, ptr elementtype(i8) %.06485, i64 %.05886) #11, !srcloc !9
  %14 = getelementptr inbounds nuw i8, ptr %.06485, i64 1
  %15 = add i64 %.087, -1
  %16 = icmp ne i64 %15, 0
  %17 = ptrtoint ptr %14 to i64
  %18 = and i64 %17, 7
  %19 = icmp ne i64 %18, 0
  %20 = select i1 %16, i1 %19, i1 false
  br i1 %20, label %.lr.ph, label %.preheader79, !llvm.loop !10

.preheader78:                                     ; preds = %.preheader79, %28
  %.192 = phi i64 [ %73, %28 ], [ %.0.lcssa, %.preheader79 ]
  %.15991 = phi i64 [ %71, %28 ], [ %.058.lcssa, %.preheader79 ]
  %.16590 = phi ptr [ %72, %28 ], [ %.064.lcssa, %.preheader79 ]
  br label %22

.preheader77:                                     ; preds = %28, %.preheader79
  %.165.lcssa = phi ptr [ %.064.lcssa, %.preheader79 ], [ %72, %28 ]
  %.159.lcssa = phi i64 [ %.058.lcssa, %.preheader79 ], [ %71, %28 ]
  %.1.lcssa = phi i64 [ %.0.lcssa, %.preheader79 ], [ %73, %28 ]
  %21 = icmp samesign ugt i64 %.1.lcssa, 767
  br i1 %21, label %.preheader76, label %._crit_edge

22:                                               ; preds = %.preheader78, %22
  %.072 = phi i64 [ %25, %22 ], [ 0, %.preheader78 ]
  %.071 = phi i64 [ %26, %22 ], [ 0, %.preheader78 ]
  %.266.idx = phi i64 [ %.266.add, %22 ], [ 0, %.preheader78 ]
  %.260 = phi i64 [ %24, %22 ], [ %.15991, %.preheader78 ]
  %.266.ptr = getelementptr inbounds nuw i8, ptr %.16590, i64 %.266.idx
  %23 = tail call { i64, i64, i64 } asm "crc32q\09($3), $0\0A\09crc32q\098192($3), $1\0A\09crc32q\0916384($3), $2", "=r,=r,=r,r,*m,0,1,2,~{dirflag},~{fpsr},~{flags}"(ptr %.266.ptr, ptr elementtype(i8) %.266.ptr, i64 %.260, i64 %.072, i64 %.071) #11, !srcloc !12
  %24 = extractvalue { i64, i64, i64 } %23, 0
  %25 = extractvalue { i64, i64, i64 } %23, 1
  %26 = extractvalue { i64, i64, i64 } %23, 2
  %.266.add = add nuw nsw i64 %.266.idx, 8
  %27 = icmp samesign ult i64 %.266.idx, 8184
  br i1 %27, label %22, label %28, !llvm.loop !13

28:                                               ; preds = %22
  %29 = and i64 %24, 255
  %30 = getelementptr inbounds nuw [256 x i32], ptr @crc32c_long, i64 0, i64 %29
  %31 = load i32, ptr %30, align 4, !tbaa !14
  %32 = lshr i64 %24, 8
  %33 = and i64 %32, 255
  %34 = getelementptr inbounds nuw [256 x i32], ptr getelementptr inbounds nuw (i8, ptr @crc32c_long, i64 1024), i64 0, i64 %33
  %35 = load i32, ptr %34, align 4, !tbaa !14
  %36 = lshr i64 %24, 16
  %37 = and i64 %36, 255
  %38 = getelementptr inbounds nuw [256 x i32], ptr getelementptr inbounds nuw (i8, ptr @crc32c_long, i64 2048), i64 0, i64 %37
  %39 = load i32, ptr %38, align 4, !tbaa !14
  %40 = lshr i64 %24, 24
  %41 = and i64 %40, 255
  %42 = getelementptr inbounds nuw [256 x i32], ptr getelementptr inbounds nuw (i8, ptr @crc32c_long, i64 3072), i64 0, i64 %41
  %43 = load i32, ptr %42, align 4, !tbaa !14
  %44 = trunc i64 %25 to i32
  %45 = xor i32 %31, %44
  %46 = xor i32 %45, %35
  %47 = xor i32 %46, %39
  %48 = xor i32 %47, %43
  %49 = and i32 %48, 255
  %50 = zext nneg i32 %49 to i64
  %51 = getelementptr inbounds nuw [256 x i32], ptr @crc32c_long, i64 0, i64 %50
  %52 = load i32, ptr %51, align 4, !tbaa !14
  %53 = lshr i32 %48, 8
  %54 = and i32 %53, 255
  %55 = zext nneg i32 %54 to i64
  %56 = getelementptr inbounds nuw [256 x i32], ptr getelementptr inbounds nuw (i8, ptr @crc32c_long, i64 1024), i64 0, i64 %55
  %57 = load i32, ptr %56, align 4, !tbaa !14
  %58 = xor i32 %57, %52
  %59 = lshr i32 %48, 16
  %60 = and i32 %59, 255
  %61 = zext nneg i32 %60 to i64
  %62 = getelementptr inbounds nuw [256 x i32], ptr getelementptr inbounds nuw (i8, ptr @crc32c_long, i64 2048), i64 0, i64 %61
  %63 = load i32, ptr %62, align 4, !tbaa !14
  %64 = xor i32 %58, %63
  %65 = lshr i32 %48, 24
  %66 = zext nneg i32 %65 to i64
  %67 = getelementptr inbounds nuw [256 x i32], ptr getelementptr inbounds nuw (i8, ptr @crc32c_long, i64 3072), i64 0, i64 %66
  %68 = load i32, ptr %67, align 4, !tbaa !14
  %69 = xor i32 %64, %68
  %70 = zext i32 %69 to i64
  %71 = xor i64 %26, %70
  %72 = getelementptr inbounds nuw i8, ptr %.16590, i64 24576
  %73 = add i64 %.192, -24576
  %74 = icmp ugt i64 %73, 24575
  br i1 %74, label %.preheader78, label %.preheader77, !llvm.loop !16

.preheader76:                                     ; preds = %.preheader77, %81
  %.298 = phi i64 [ %126, %81 ], [ %.1.lcssa, %.preheader77 ]
  %.36197 = phi i64 [ %124, %81 ], [ %.159.lcssa, %.preheader77 ]
  %.36796 = phi ptr [ %125, %81 ], [ %.165.lcssa, %.preheader77 ]
  br label %75

75:                                               ; preds = %.preheader76, %75
  %.468.idx = phi i64 [ %.468.add, %75 ], [ 0, %.preheader76 ]
  %.063 = phi i64 [ %78, %75 ], [ 0, %.preheader76 ]
  %.062 = phi i64 [ %79, %75 ], [ 0, %.preheader76 ]
  %.4 = phi i64 [ %77, %75 ], [ %.36197, %.preheader76 ]
  %.468.ptr = getelementptr inbounds nuw i8, ptr %.36796, i64 %.468.idx
  %76 = tail call { i64, i64, i64 } asm "crc32q\09($3), $0\0A\09crc32q\09256($3), $1\0A\09crc32q\09512($3), $2", "=r,=r,=r,r,*m,0,1,2,~{dirflag},~{fpsr},~{flags}"(ptr %.468.ptr, ptr elementtype(i8) %.468.ptr, i64 %.4, i64 %.063, i64 %.062) #11, !srcloc !17
  %77 = extractvalue { i64, i64, i64 } %76, 0
  %78 = extractvalue { i64, i64, i64 } %76, 1
  %79 = extractvalue { i64, i64, i64 } %76, 2
  %.468.add = add nuw nsw i64 %.468.idx, 8
  %80 = icmp samesign ult i64 %.468.idx, 248
  br i1 %80, label %75, label %81, !llvm.loop !18

81:                                               ; preds = %75
  %82 = and i64 %77, 255
  %83 = getelementptr inbounds nuw [256 x i32], ptr @crc32c_short, i64 0, i64 %82
  %84 = load i32, ptr %83, align 4, !tbaa !14
  %85 = lshr i64 %77, 8
  %86 = and i64 %85, 255
  %87 = getelementptr inbounds nuw [256 x i32], ptr getelementptr inbounds nuw (i8, ptr @crc32c_short, i64 1024), i64 0, i64 %86
  %88 = load i32, ptr %87, align 4, !tbaa !14
  %89 = lshr i64 %77, 16
  %90 = and i64 %89, 255
  %91 = getelementptr inbounds nuw [256 x i32], ptr getelementptr inbounds nuw (i8, ptr @crc32c_short, i64 2048), i64 0, i64 %90
  %92 = load i32, ptr %91, align 4, !tbaa !14
  %93 = lshr i64 %77, 24
  %94 = and i64 %93, 255
  %95 = getelementptr inbounds nuw [256 x i32], ptr getelementptr inbounds nuw (i8, ptr @crc32c_short, i64 3072), i64 0, i64 %94
  %96 = load i32, ptr %95, align 4, !tbaa !14
  %97 = trunc i64 %78 to i32
  %98 = xor i32 %84, %97
  %99 = xor i32 %98, %88
  %100 = xor i32 %99, %92
  %101 = xor i32 %100, %96
  %102 = and i32 %101, 255
  %103 = zext nneg i32 %102 to i64
  %104 = getelementptr inbounds nuw [256 x i32], ptr @crc32c_short, i64 0, i64 %103
  %105 = load i32, ptr %104, align 4, !tbaa !14
  %106 = lshr i32 %101, 8
  %107 = and i32 %106, 255
  %108 = zext nneg i32 %107 to i64
  %109 = getelementptr inbounds nuw [256 x i32], ptr getelementptr inbounds nuw (i8, ptr @crc32c_short, i64 1024), i64 0, i64 %108
  %110 = load i32, ptr %109, align 4, !tbaa !14
  %111 = xor i32 %110, %105
  %112 = lshr i32 %101, 16
  %113 = and i32 %112, 255
  %114 = zext nneg i32 %113 to i64
  %115 = getelementptr inbounds nuw [256 x i32], ptr getelementptr inbounds nuw (i8, ptr @crc32c_short, i64 2048), i64 0, i64 %114
  %116 = load i32, ptr %115, align 4, !tbaa !14
  %117 = xor i32 %111, %116
  %118 = lshr i32 %101, 24
  %119 = zext nneg i32 %118 to i64
  %120 = getelementptr inbounds nuw [256 x i32], ptr getelementptr inbounds nuw (i8, ptr @crc32c_short, i64 3072), i64 0, i64 %119
  %121 = load i32, ptr %120, align 4, !tbaa !14
  %122 = xor i32 %117, %121
  %123 = zext i32 %122 to i64
  %124 = xor i64 %79, %123
  %125 = getelementptr inbounds nuw i8, ptr %.36796, i64 768
  %126 = add nsw i64 %.298, -768
  %127 = icmp ugt i64 %126, 767
  br i1 %127, label %.preheader76, label %._crit_edge, !llvm.loop !19

._crit_edge:                                      ; preds = %81, %.preheader77
  %.367.lcssa = phi ptr [ %.165.lcssa, %.preheader77 ], [ %125, %81 ]
  %.361.lcssa = phi i64 [ %.159.lcssa, %.preheader77 ], [ %124, %81 ]
  %.2.lcssa = phi i64 [ %.1.lcssa, %.preheader77 ], [ %126, %81 ]
  %128 = and i64 %.2.lcssa, 7
  %129 = and i64 %.2.lcssa, 1016
  %130 = getelementptr inbounds nuw i8, ptr %.367.lcssa, i64 %129
  %.not115 = icmp eq i64 %129, 0
  br i1 %.not115, label %.preheader, label %.lr.ph105

.preheader:                                       ; preds = %.lr.ph105, %._crit_edge
  %.569.lcssa = phi ptr [ %.367.lcssa, %._crit_edge ], [ %132, %.lr.ph105 ]
  %.5.lcssa = phi i64 [ %.361.lcssa, %._crit_edge ], [ %131, %.lr.ph105 ]
  %.not108 = icmp eq i64 %128, 0
  br i1 %.not108, label %._crit_edge113, label %.lr.ph112

.lr.ph105:                                        ; preds = %._crit_edge, %.lr.ph105
  %.5103 = phi i64 [ %131, %.lr.ph105 ], [ %.361.lcssa, %._crit_edge ]
  %.569102 = phi ptr [ %132, %.lr.ph105 ], [ %.367.lcssa, %._crit_edge ]
  %131 = tail call i64 asm "crc32q\09($1), $0", "=r,r,*m,0,~{dirflag},~{fpsr},~{flags}"(ptr %.569102, ptr elementtype(i8) %.569102, i64 %.5103) #11, !srcloc !20
  %132 = getelementptr inbounds nuw i8, ptr %.569102, i64 8
  %133 = icmp ult ptr %132, %130
  br i1 %133, label %.lr.ph105, label %.preheader, !llvm.loop !21

.lr.ph112:                                        ; preds = %.preheader, %.lr.ph112
  %.3111 = phi i64 [ %136, %.lr.ph112 ], [ %128, %.preheader ]
  %.6110 = phi i64 [ %134, %.lr.ph112 ], [ %.5.lcssa, %.preheader ]
  %.670109 = phi ptr [ %135, %.lr.ph112 ], [ %.569.lcssa, %.preheader ]
  %134 = tail call i64 asm "crc32b\09($1), $0", "=r,r,*m,0,~{dirflag},~{fpsr},~{flags}"(ptr %.670109, ptr elementtype(i8) %.670109, i64 %.6110) #11, !srcloc !22
  %135 = getelementptr inbounds nuw i8, ptr %.670109, i64 1
  %136 = add nsw i64 %.3111, -1
  %.not = icmp eq i64 %136, 0
  br i1 %.not, label %._crit_edge113, label %.lr.ph112, !llvm.loop !23

._crit_edge113:                                   ; preds = %.lr.ph112, %.preheader
  %.6.lcssa = phi i64 [ %.5.lcssa, %.preheader ], [ %134, %.lr.ph112 ]
  %137 = trunc i64 %.6.lcssa to i32
  %138 = xor i32 %137, -1
  ret i32 %138
}